target datalayout = "e-m:e-p270:32:32-p271:32:32-p272:64:64-i64:64-i128:128-f80:128-n8:16:32:64-S128"
target triple = "x86_64-pc-linux-gnu"

; Function Attrs: nounwind uwtable
define internal void @shrink44(ptr noundef %0, i64 noundef %1, ptr noundef %2, i64 noundef %3, i32 noundef %4, i32 noundef %5) #1 {
  %7 = alloca ptr, align 8
  %8 = alloca i64, align 8
  %9 = alloca ptr, align 8
  %10 = alloca i64, align 8
  %11 = alloca i32, align 4
  %12 = alloca i32, align 4
  %13 = alloca i32, align 4
  %14 = alloca ptr, align 8
  %15 = alloca ptr, align 8
  %16 = alloca ptr, align 8
  %17 = alloca ptr, align 8
  %18 = alloca ptr, align 8
  store ptr %0, ptr %7, align 8, !tbaa !27
  store i64 %1, ptr %8, align 8, !tbaa !29
  store ptr %2, ptr %9, align 8, !tbaa !27
  store i64 %3, ptr %10, align 8, !tbaa !29
  store i32 %4, ptr %11, align 4, !tbaa !20
  store i32 %5, ptr %12, align 4, !tbaa !20
  call void @llvm.lifetime.start.p0(i64 4, ptr %13) #7
  call void @llvm.lifetime.start.p0(i64 8, ptr %14) #7
  call void @llvm.lifetime.start.p0(i64 8, ptr %15) #7
  call void @llvm.lifetime.start.p0(i64 8, ptr %16) #7
  call void @llvm.lifetime.start.p0(i64 8, ptr %17) #7
  call void @llvm.lifetime.start.p0(i64 8, ptr %18) #7
  br label %19

19:                                               ; preds = %144, %6
  %20 = load i32, ptr %12, align 4, !tbaa !20
  %21 = icmp sgt i32 %20, 0
  br i1 %21, label %22, label %147

22:                                               ; preds = %19
  %23 = load ptr, ptr %9, align 8, !tbaa !27
  store ptr %23, ptr %14, align 8, !tbaa !27
  %24 = load ptr, ptr %14, align 8, !tbaa !27
  %25 = load i64, ptr %10, align 8, !tbaa !29
  %26 = getelementptr inbounds i8, ptr %24, i64 %25
  store ptr %26, ptr %15, align 8, !tbaa !27
  %27 = load ptr, ptr %15, align 8, !tbaa !27
  %28 = load i64, ptr %10, align 8, !tbaa !29
  %29 = getelementptr inbounds i8, ptr %27, i64 %28
  store ptr %29, ptr %16, align 8, !tbaa !27
  %30 = load ptr, ptr %16, align 8, !tbaa !27
  %31 = load i64, ptr %10, align 8, !tbaa !29
  %32 = getelementptr inbounds i8, ptr %30, i64 %31
  store ptr %32, ptr %17, align 8, !tbaa !27
  %33 = load ptr, ptr %7, align 8, !tbaa !27
  store ptr %33, ptr %18, align 8, !tbaa !27
  %34 = load i32, ptr %11, align 4, !tbaa !20
  store i32 %34, ptr %13, align 4, !tbaa !20
  br label %35

35:                                               ; preds = %133, %22
  %36 = load i32, ptr %13, align 4, !tbaa !20
  %37 = icmp sgt i32 %36, 0
  br i1 %37, label %38, label %136

38:                                               ; preds = %35
  %39 = load ptr, ptr %14, align 8, !tbaa !27
  %40 = getelementptr inbounds i8, ptr %39, i64 0
  %41 = load i8, ptr %40, align 1, !tbaa !31
  %42 = zext i8 %41 to i32
  %43 = load ptr, ptr %14, align 8, !tbaa !27
  %44 = getelementptr inbounds i8, ptr %43, i64 1
  %45 = load i8, ptr %44, align 1, !tbaa !31
  %46 = zext i8 %45 to i32
  %47 = add nsw i32 %42, %46
  %48 = load ptr, ptr %14, align 8, !tbaa !27
  %49 = getelementptr inbounds i8, ptr %48, i64 2
  %50 = load i8, ptr %49, align 1, !tbaa !31
  %51 = zext i8 %50 to i32
  %52 = add nsw i32 %47, %51
  %53 = load ptr, ptr %14, align 8, !tbaa !27
  %54 = getelementptr inbounds i8, ptr %53, i64 3
  %55 = load i8, ptr %54, align 1, !tbaa !31
  %56 = zext i8 %55 to i32
  %57 = add nsw i32 %52, %56
  %58 = load ptr, ptr %15, align 8, !tbaa !27
  %59 = getelementptr inbounds i8, ptr %58, i64 0
  %60 = load i8, ptr %59, align 1, !tbaa !31
  %61 = zext i8 %60 to i32
  %62 = add nsw i32 %57, %61
  %63 = load ptr, ptr %15, align 8, !tbaa !27
  %64 = getelementptr inbounds i8, ptr %63, i64 1
  %65 = load i8, ptr %64, align 1, !tbaa !31
  %66 = zext i8 %65 to i32
  %67 = add nsw i32 %62, %66
  %68 = load ptr, ptr %15, align 8, !tbaa !27
  %69 = getelementptr inbounds i8, ptr %68, i64 2
  %70 = load i8, ptr %69, align 1, !tbaa !31
  %71 = zext i8 %70 to i32
  %72 = add nsw i32 %67, %71
  %73 = load ptr, ptr %15, align 8, !tbaa !27
  %74 = getelementptr inbounds i8, ptr %73, i64 3
  %75 = load i8, ptr %74, align 1, !tbaa !31
  %76 = zext i8 %75 to i32
  %77 = add nsw i32 %72, %76
  %78 = load ptr, ptr %16, align 8, !tbaa !27
  %79 = getelementptr inbounds i8, ptr %78, i64 0
  %80 = load i8, ptr %79, align 1, !tbaa !31
  %81 = zext i8 %80 to i32
  %82 = add nsw i32 %77, %81
  %83 = load ptr, ptr %16, align 8, !tbaa !27
  %84 = getelementptr inbounds i8, ptr %83, i64 1
  %85 = load i8, ptr %84, align 1, !tbaa !31
  %86 = zext i8 %85 to i32
  %87 = add nsw i32 %82, %86
  %88 = load ptr, ptr %16, align 8, !tbaa !27
  %89 = getelementptr inbounds i8, ptr %88, i64 2
  %90 = load i8, ptr %89, align 1, !tbaa !31
  %91 = zext i8 %90 to i32
  %92 = add nsw i32 %87, %91
  %93 = load ptr, ptr %16, align 8, !tbaa !27
  %94 = getelementptr inbounds i8, ptr %93, i64 3
  %95 = load i8, ptr %94, align 1, !tbaa !31
  %96 = zext i8 %95 to i32
  %97 = add nsw i32 %92, %96
  %98 = load ptr, ptr %17, align 8, !tbaa !27
  %99 = getelementptr inbounds i8, ptr %98, i64 0
  %100 = load i8, ptr %99, align 1, !tbaa !31
  %101 = zext i8 %100 to i32
  %102 = add nsw i32 %97, %101
  %103 = load ptr, ptr %17, align 8, !tbaa !27
  %104 = getelementptr inbounds i8, ptr %103, i64 1
  %105 = load i8, ptr %104, align 1, !tbaa !31
  %106 = zext i8 %105 to i32
  %107 = add nsw i32 %102, %106
  %108 = load ptr, ptr %17, align 8, !tbaa !27
  %109 = getelementptr inbounds i8, ptr %108, i64 2
  %110 = load i8, ptr %109, align 1, !tbaa !31
  %111 = zext i8 %110 to i32
  %112 = add nsw i32 %107, %111
  %113 = load ptr, ptr %17, align 8, !tbaa !27
  %114 = getelementptr inbounds i8, ptr %113, i64 3
  %115 = load i8, ptr %114, align 1, !tbaa !31
  %116 = zext i8 %115 to i32
  %117 = add nsw i32 %112, %116
  %118 = add nsw i32 %117, 8
  %119 = ashr i32 %118, 4
  %120 = trunc i32 %119 to i8
  %121 = load ptr, ptr %18, align 8, !tbaa !27
  %122 = getelementptr inbounds i8, ptr %121, i64 0
  store i8 %120, ptr %122, align 1, !tbaa !31
  %123 = load ptr, ptr %14, align 8, !tbaa !27
  %124 = getelementptr inbounds i8, ptr %123, i64 4
  store ptr %124, ptr %14, align 8, !tbaa !27
  %125 = load ptr, ptr %15, align 8, !tbaa !27
  %126 = getelementptr inbounds i8, ptr %125, i64 4
  store ptr %126, ptr %15, align 8, !tbaa !27
  %127 = load ptr, ptr %16, align 8, !tbaa !27
  %128 = getelementptr inbounds i8, ptr %127, i64 4
  store ptr %128, ptr %16, align 8, !tbaa !27
  %129 = load ptr, ptr %17, align 8, !tbaa !27
  %130 = getelementptr inbounds i8, ptr %129, i64 4
  store ptr %130, ptr %17, align 8, !tbaa !27
  %131 = load ptr, ptr %18, align 8, !tbaa !27
  %132 = getelementptr inbounds nuw i8, ptr %131, i32 1
  store ptr %132, ptr %18, align 8, !tbaa !27
  br label %133

133:                                              ; preds = %38
  %134 = load i32, ptr %13, align 4, !tbaa !20
  %135 = add nsw i32 %134, -1
  store i32 %135, ptr %13, align 4, !tbaa !20
  br label %35, !llvm.loop !35

136:                                              ; preds = %35
  %137 = load i64, ptr %10, align 8, !tbaa !29
  %138 = mul nsw i64 4, %137
  %139 = load ptr, ptr %9, align 8, !tbaa !27
  %140 = getelementptr inbounds i8, ptr %139, i64 %138
  store ptr %140, ptr %9, align 8, !tbaa !27
  %141 = load i64, ptr %8, align 8, !tbaa !29
  %142 = load ptr, ptr %7, align 8, !tbaa !27
  %143 = getelementptr inbounds i8, ptr %142, i64 %141
  store ptr %143, ptr %7, align 8, !tbaa !27
  br label %144

144:                                              ; preds = %136
  %145 = load i32, ptr %12, align 4, !tbaa !20
  %146 = add nsw i32 %145, -1
  store i32 %146, ptr %12, align 4, !tbaa !20
  br label %19, !llvm.loop !36

147:                                              ; preds = %19
  call void @llvm.lifetime.end.p0(i64 8, ptr %18) #7
  call void @llvm.lifetime.end.p0(i64 8, ptr %17) #7
  call void @llvm.lifetime.end.p0(i64 8, ptr %16) #7
  call void @llvm.lifetime.end.p0(i64 8, ptr %15) #7
  call void @llvm.lifetime.end.p0(i64 8, ptr %14) #7
  call void @llvm.lifetime.end.p0(i64 4, ptr %13) #7
  ret void
}