; Function Attrs: nofree norecurse nosync nounwind memory(argmem: readwrite) uwtable
define internal void @shrink44(ptr noundef writeonly captures(none) %0, i64 noundef %1, ptr noundef readonly captures(none) %2, i64 noundef %3, i32 noundef %4, i32 noundef %5) #2 {
  %7 = icmp sgt i32 %5, 0
  br i1 %7, label %.lr.ph56, label %._crit_edge57

.lr.ph56:                                         ; preds = %6
  %8 = icmp sgt i32 %4, 0
  %9 = shl nsw i64 %3, 2
  br i1 %8, label %.lr.ph.us, label %._crit_edge57

.lr.ph.us:                                        ; preds = %.lr.ph56, %._crit_edge.us
  %.04354.us = phi i32 [ %85, %._crit_edge.us ], [ %5, %.lr.ph56 ]
  %.04453.us = phi ptr [ %84, %._crit_edge.us ], [ %0, %.lr.ph56 ]
  %.04552.us = phi ptr [ %83, %._crit_edge.us ], [ %2, %.lr.ph56 ]
  %10 = getelementptr inbounds i8, ptr %.04552.us, i64 %3
  %11 = getelementptr inbounds i8, ptr %10, i64 %3
  %12 = getelementptr inbounds i8, ptr %11, i64 %3
  br label %13

13:                                               ; preds = %.lr.ph.us, %13
  %.051.us = phi ptr [ %.04453.us, %.lr.ph.us ], [ %80, %13 ]
  %.03850.us = phi ptr [ %12, %.lr.ph.us ], [ %79, %13 ]
  %.03949.us = phi ptr [ %11, %.lr.ph.us ], [ %78, %13 ]
  %.04048.us = phi ptr [ %10, %.lr.ph.us ], [ %77, %13 ]
  %.04147.us = phi ptr [ %.04552.us, %.lr.ph.us ], [ %76, %13 ]
  %.04246.us = phi i32 [ %4, %.lr.ph.us ], [ %81, %13 ]
  %14 = load i8, ptr %.04147.us, align 1, !tbaa !20
  %15 = zext i8 %14 to i16
  %16 = getelementptr inbounds nuw i8, ptr %.04147.us, i64 1
  %17 = load i8, ptr %16, align 1, !tbaa !20
  %18 = zext i8 %17 to i16
  %19 = getelementptr inbounds nuw i8, ptr %.04147.us, i64 2
  %20 = load i8, ptr %19, align 1, !tbaa !20
  %21 = zext i8 %20 to i16
  %22 = getelementptr inbounds nuw i8, ptr %.04147.us, i64 3
  %23 = load i8, ptr %22, align 1, !tbaa !20
  %24 = zext i8 %23 to i16
  %25 = load i8, ptr %.04048.us, align 1, !tbaa !20
  %26 = zext i8 %25 to i16
  %27 = getelementptr inbounds nuw i8, ptr %.04048.us, i64 1
  %28 = load i8, ptr %27, align 1, !tbaa !20
  %29 = zext i8 %28 to i16
  %30 = getelementptr inbounds nuw i8, ptr %.04048.us, i64 2
  %31 = load i8, ptr %30, align 1, !tbaa !20
  %32 = zext i8 %31 to i16
  %33 = getelementptr inbounds nuw i8, ptr %.04048.us, i64 3
  %34 = load i8, ptr %33, align 1, !tbaa !20
  %35 = zext i8 %34 to i16
  %36 = load i8, ptr %.03949.us, align 1, !tbaa !20
  %37 = zext i8 %36 to i16
  %38 = getelementptr inbounds nuw i8, ptr %.03949.us, i64 1
  %39 = load i8, ptr %38, align 1, !tbaa !20
  %40 = zext i8 %39 to i16
  %41 = getelementptr inbounds nuw i8, ptr %.03949.us, i64 2
  %42 = load i8, ptr %41, align 1, !tbaa !20
  %43 = zext i8 %42 to i16
  %44 = getelementptr inbounds nuw i8, ptr %.03949.us, i64 3
  %45 = load i8, ptr %44, align 1, !tbaa !20
  %46 = zext i8 %45 to i16
  %47 = load i8, ptr %.03850.us, align 1, !tbaa !20
  %48 = zext i8 %47 to i16
  %49 = getelementptr inbounds nuw i8, ptr %.03850.us, i64 1
  %50 = load i8, ptr %49, align 1, !tbaa !20
  %51 = zext i8 %50 to i16
  %52 = getelementptr inbounds nuw i8, ptr %.03850.us, i64 2
  %53 = load i8, ptr %52, align 1, !tbaa !20
  %54 = zext i8 %53 to i16
  %55 = getelementptr inbounds nuw i8, ptr %.03850.us, i64 3
  %56 = load i8, ptr %55, align 1, !tbaa !20
  %57 = zext i8 %56 to i16
  %58 = add nuw nsw i16 %15, 8
  %59 = add nuw nsw i16 %58, %18
  %60 = add nuw nsw i16 %59, %21
  %61 = add nuw nsw i16 %60, %24
  %62 = add nuw nsw i16 %61, %26
  %63 = add nuw nsw i16 %62, %29
  %64 = add nuw nsw i16 %63, %32
  %65 = add nuw nsw i16 %64, %35
  %66 = add nuw nsw i16 %65, %37
  %67 = add nuw nsw i16 %66, %40
  %68 = add nuw nsw i16 %67, %43
  %69 = add nuw nsw i16 %68, %46
  %70 = add nuw nsw i16 %69, %48
  %71 = add nuw nsw i16 %70, %51
  %72 = add nuw nsw i16 %71, %54
  %73 = add nuw nsw i16 %72, %57
  %74 = lshr i16 %73, 4
  %75 = trunc nuw i16 %74 to i8
  store i8 %75, ptr %.051.us, align 1, !tbaa !20
  %76 = getelementptr inbounds nuw i8, ptr %.04147.us, i64 4
  %77 = getelementptr inbounds nuw i8, ptr %.04048.us, i64 4
  %78 = getelementptr inbounds nuw i8, ptr %.03949.us, i64 4
  %79 = getelementptr inbounds nuw i8, ptr %.03850.us, i64 4
  %80 = getelementptr inbounds nuw i8, ptr %.051.us, i64 1
  %81 = add nsw i32 %.04246.us, -1
  %82 = icmp sgt i32 %.04246.us, 1
  br i1 %82, label %13, label %._crit_edge.us, !llvm.loop !23

._crit_edge.us:                                   ; preds = %13
  %83 = getelementptr inbounds i8, ptr %.04552.us, i64 %9
  %84 = getelementptr inbounds i8, ptr %.04453.us, i64 %1
  %85 = add nsw i32 %.04354.us, -1
  %86 = icmp sgt i32 %.04354.us, 1
  br i1 %86, label %.lr.ph.us, label %._crit_edge57, !llvm.loop !24

._crit_edge57:                                    ; preds = %._crit_edge.us, %.lr.ph56, %6
  ret void
}